; Function Attrs: nounwind uwtable
define ptr @l_Lean_Grind_CommRing_Poly_simp_x3f(ptr noundef %0, ptr noundef %1, ptr noundef %2) local_unnamed_addr #1 {
  %4 = ptrtoint ptr %1 to i64
  %5 = and i64 %4, 1
  %.not.i34 = icmp eq i64 %5, 0
  br i1 %.not.i34, label %9, label %6

6:                                                ; preds = %3
  %7 = lshr i64 %4, 1
  %8 = trunc i64 %7 to i32
  br label %lean_obj_tag.exit

9:                                                ; preds = %3
  %10 = getelementptr i8, ptr %1, i64 4
  %.val.i = load i32, ptr %10, align 4
  %11 = lshr i32 %.val.i, 24
  br label %lean_obj_tag.exit

lean_obj_tag.exit:                                ; preds = %6, %9
  %.0.i = phi i32 [ %8, %6 ], [ %11, %9 ]
  %12 = icmp eq i32 %.0.i, 0
  br i1 %12, label %13, label %39

13:                                               ; preds = %lean_obj_tag.exit
  %14 = ptrtoint ptr %2 to i64
  %15 = and i64 %14, 1
  %.not46 = icmp eq i64 %15, 0
  br i1 %.not46, label %16, label %lean_dec.exit25

16:                                               ; preds = %13
  %17 = load i32, ptr %2, align 4, !tbaa !10
  %18 = icmp sgt i32 %17, 1
  br i1 %18, label %19, label %21, !prof !5

19:                                               ; preds = %16
  %20 = add nsw i32 %17, -1
  store i32 %20, ptr %2, align 4, !tbaa !10
  br label %lean_dec.exit25

21:                                               ; preds = %16
  %.not.i = icmp eq i32 %17, 0
  br i1 %.not.i, label %lean_dec.exit25, label %22

22:                                               ; preds = %21
  tail call void @lean_dec_ref_cold(ptr noundef nonnull %2) #6
  br label %lean_dec.exit25

lean_dec.exit25:                                  ; preds = %22, %21, %19, %13
  br i1 %.not.i34, label %23, label %lean_dec.exit24

23:                                               ; preds = %lean_dec.exit25
  %24 = load i32, ptr %1, align 4, !tbaa !10
  %25 = icmp sgt i32 %24, 1
  br i1 %25, label %26, label %28, !prof !5

26:                                               ; preds = %23
  %27 = add nsw i32 %24, -1
  store i32 %27, ptr %1, align 4, !tbaa !10
  br label %lean_dec.exit24

28:                                               ; preds = %23
  %.not.i26 = icmp eq i32 %24, 0
  br i1 %.not.i26, label %lean_dec.exit24, label %29

29:                                               ; preds = %28
  tail call void @lean_dec_ref_cold(ptr noundef nonnull %1) #6
  br label %lean_dec.exit24

lean_dec.exit24:                                  ; preds = %29, %28, %26, %lean_dec.exit25
  %30 = ptrtoint ptr %0 to i64
  %31 = and i64 %30, 1
  %.not48 = icmp eq i64 %31, 0
  br i1 %.not48, label %32, label %lean_dec.exit23

32:                                               ; preds = %lean_dec.exit24
  %33 = load i32, ptr %0, align 4, !tbaa !10
  %34 = icmp sgt i32 %33, 1
  br i1 %34, label %35, label %37, !prof !5

35:                                               ; preds = %32
  %36 = add nsw i32 %33, -1
  store i32 %36, ptr %0, align 4, !tbaa !10
  br label %lean_dec.exit23

37:                                               ; preds = %32
  %.not.i28 = icmp eq i32 %33, 0
  br i1 %.not.i28, label %lean_dec.exit23, label %38

38:                                               ; preds = %37
  tail call void @lean_dec_ref_cold(ptr noundef nonnull %0) #6
  br label %lean_dec.exit23

39:                                               ; preds = %lean_obj_tag.exit
  %40 = getelementptr inbounds nuw i8, ptr %1, i64 8
  %41 = load ptr, ptr %40, align 8, !tbaa !6
  %42 = ptrtoint ptr %41 to i64
  %43 = and i64 %42, 1
  %.not = icmp eq i64 %43, 0
  br i1 %.not, label %44, label %lean_inc.exit21

44:                                               ; preds = %39
  %.val.i35 = load i32, ptr %41, align 4, !tbaa !10
  %45 = icmp sgt i32 %.val.i35, 0
  br i1 %45, label %46, label %48, !prof !5

46:                                               ; preds = %44
  %47 = add nuw i32 %.val.i35, 1
  store i32 %47, ptr %41, align 4, !tbaa !10
  br label %lean_inc.exit21

48:                                               ; preds = %44
  %.not.i36 = icmp eq i32 %.val.i35, 0
  br i1 %.not.i36, label %lean_inc.exit21, label %49

49:                                               ; preds = %48
  tail call void @lean_inc_ref_cold(ptr noundef nonnull %41) #6
  br label %lean_inc.exit21

lean_inc.exit21:                                  ; preds = %49, %48, %46, %39
  %50 = getelementptr inbounds nuw i8, ptr %1, i64 16
  %51 = load ptr, ptr %50, align 8, !tbaa !6
  %52 = ptrtoint ptr %51 to i64
  %53 = and i64 %52, 1
  %.not43 = icmp eq i64 %53, 0
  br i1 %.not43, label %54, label %lean_inc.exit20

54:                                               ; preds = %lean_inc.exit21
  %.val.i37 = load i32, ptr %51, align 4, !tbaa !10
  %55 = icmp sgt i32 %.val.i37, 0
  br i1 %55, label %56, label %58, !prof !5

56:                                               ; preds = %54
  %57 = add nuw i32 %.val.i37, 1
  store i32 %57, ptr %51, align 4, !tbaa !10
  br label %lean_inc.exit20

58:                                               ; preds = %54
  %.not.i38 = icmp eq i32 %.val.i37, 0
  br i1 %.not.i38, label %lean_inc.exit20, label %59

59:                                               ; preds = %58
  tail call void @lean_inc_ref_cold(ptr noundef nonnull %51) #6
  br label %lean_inc.exit20

lean_inc.exit20:                                  ; preds = %59, %58, %56, %lean_inc.exit21
  %60 = getelementptr inbounds nuw i8, ptr %1, i64 24
  %61 = load ptr, ptr %60, align 8, !tbaa !6
  %62 = ptrtoint ptr %61 to i64
  %63 = and i64 %62, 1
  %.not44 = icmp eq i64 %63, 0
  br i1 %.not44, label %64, label %lean_inc.exit

64:                                               ; preds = %lean_inc.exit20
  %.val.i40 = load i32, ptr %61, align 4, !tbaa !10
  %65 = icmp sgt i32 %.val.i40, 0
  br i1 %65, label %66, label %68, !prof !5

66:                                               ; preds = %64
  %67 = add nuw i32 %.val.i40, 1
  store i32 %67, ptr %61, align 4, !tbaa !10
  br label %lean_inc.exit

68:                                               ; preds = %64
  %.not.i41 = icmp eq i32 %.val.i40, 0
  br i1 %.not.i41, label %lean_inc.exit, label %69

69:                                               ; preds = %68
  tail call void @lean_inc_ref_cold(ptr noundef nonnull %61) #6
  br label %lean_inc.exit

lean_inc.exit:                                    ; preds = %69, %68, %66, %lean_inc.exit20
  br i1 %.not.i34, label %70, label %lean_dec.exit22

70:                                               ; preds = %lean_inc.exit
  %71 = load i32, ptr %1, align 4, !tbaa !10
  %72 = icmp sgt i32 %71, 1
  br i1 %72, label %73, label %75, !prof !5

73:                                               ; preds = %70
  %74 = add nsw i32 %71, -1
  store i32 %74, ptr %1, align 4, !tbaa !10
  br label %lean_dec.exit22

75:                                               ; preds = %70
  %.not.i30 = icmp eq i32 %71, 0
  br i1 %.not.i30, label %lean_dec.exit22, label %76

76:                                               ; preds = %75
  tail call void @lean_dec_ref_cold(ptr noundef nonnull %1) #6
  br label %lean_dec.exit22

lean_dec.exit22:                                  ; preds = %76, %75, %73, %lean_inc.exit
  %77 = tail call ptr @l_Lean_Grind_CommRing_Poly_simp_x3f_go_x3f(ptr noundef %2, ptr noundef %41, ptr noundef %51, ptr noundef %61, ptr noundef %0)
  br i1 %.not, label %78, label %lean_dec.exit23

78:                                               ; preds = %lean_dec.exit22
  %79 = load i32, ptr %41, align 4, !tbaa !10
  %80 = icmp sgt i32 %79, 1
  br i1 %80, label %81, label %83, !prof !5

81:                                               ; preds = %78
  %82 = add nsw i32 %79, -1
  store i32 %82, ptr %41, align 4, !tbaa !10
  br label %lean_dec.exit23

83:                                               ; preds = %78
  %.not.i32 = icmp eq i32 %79, 0
  br i1 %.not.i32, label %lean_dec.exit23, label %84

84:                                               ; preds = %83
  tail call void @lean_dec_ref_cold(ptr noundef nonnull %41) #6
  br label %lean_dec.exit23

lean_dec.exit23:                                  ; preds = %lean_dec.exit22, %81, %83, %84, %lean_dec.exit24, %35, %37, %38
  %.0 = phi ptr [ inttoptr (i64 1 to ptr), %38 ], [ inttoptr (i64 1 to ptr), %37 ], [ inttoptr (i64 1 to ptr), %35 ], [ inttoptr (i64 1 to ptr), %lean_dec.exit24 ], [ %77, %84 ], [ %77, %83 ], [ %77, %81 ], [ %77, %lean_dec.exit22 ]
  ret ptr %.0
}